; Function Attrs: mustprogress uwtable
define hidden noundef zeroext i1 @_ZNK19OpenColorIO_v2_5dev19FixedFunctionOpData9isInverseERSt10shared_ptrIKS0_E(ptr noundef nonnull align 8 dereferenceable(200) %0, ptr noundef nonnull readonly align 8 captures(none) dereferenceable(16) %1) local_unnamed_addr #0 align 2 personality ptr @__gxx_personality_v0 {
  %3 = alloca %"class.std::shared_ptr", align 8
  %4 = getelementptr inbounds nuw i8, ptr %0, i64 168
  %5 = load i32, ptr %4, align 8, !tbaa !15
  %6 = and i32 %5, -2
  %or.cond = icmp eq i32 %6, 12
  %.pre = load ptr, ptr %1, align 8, !tbaa !61
  br i1 %or.cond, label %7, label %20

7:                                                ; preds = %2
  %8 = getelementptr inbounds nuw i8, ptr %.pre, i64 168
  %9 = load i32, ptr %8, align 8, !tbaa !15
  %10 = icmp eq i32 %5, %9
  br i1 %10, label %11, label %20

11:                                               ; preds = %7
  %12 = getelementptr inbounds nuw i8, ptr %0, i64 176
  %13 = load ptr, ptr %12, align 8, !tbaa !38
  %14 = load double, ptr %13, align 8, !tbaa !58
  %15 = getelementptr inbounds nuw i8, ptr %.pre, i64 176
  %16 = load ptr, ptr %15, align 8, !tbaa !38
  %17 = load double, ptr %16, align 8, !tbaa !58
  %18 = fdiv double 1.000000e+00, %17
  %19 = fcmp oeq double %14, %18
  br label %51

20:                                               ; preds = %7, %2
  call void @llvm.lifetime.start.p0(i64 16, ptr nonnull %3) #19
  call void @_ZNK19OpenColorIO_v2_5dev19FixedFunctionOpData7inverseEv(ptr dead_on_unwind nonnull writable sret(%"class.std::shared_ptr") align 8 %3, ptr noundef nonnull align 8 dereferenceable(200) %0)
  %21 = load ptr, ptr %3, align 8, !tbaa !46
  %22 = load ptr, ptr %.pre, align 8, !tbaa !13
  %23 = getelementptr inbounds nuw i8, ptr %22, i64 72
  %24 = load ptr, ptr %23, align 8
  %25 = invoke noundef zeroext i1 %24(ptr noundef nonnull align 8 dereferenceable(200) %.pre, ptr noundef nonnull align 8 dereferenceable(200) %21)
          to label %_ZN19OpenColorIO_v2_5deveqERKNS_19FixedFunctionOpDataES2_.exit unwind label %49

_ZN19OpenColorIO_v2_5deveqERKNS_19FixedFunctionOpDataES2_.exit: ; preds = %20
  %26 = getelementptr inbounds nuw i8, ptr %3, i64 8
  %27 = load ptr, ptr %26, align 8, !tbaa !55
  %.not.i.i = icmp eq ptr %27, null
  br i1 %.not.i.i, label %_ZNSt12__shared_ptrIN19OpenColorIO_v2_5dev19FixedFunctionOpDataELN9__gnu_cxx12_Lock_policyE2EED2Ev.exit, label %28

28:                                               ; preds = %_ZN19OpenColorIO_v2_5deveqERKNS_19FixedFunctionOpDataES2_.exit
  %29 = getelementptr inbounds nuw i8, ptr %27, i64 8
  %30 = load atomic i64, ptr %29 acquire, align 8
  %31 = icmp eq i64 %30, 4294967297
  %32 = trunc i64 %30 to i32
  br i1 %31, label %33, label %41

33:                                               ; preds = %28
  store i32 0, ptr %29, align 8, !tbaa !51
  %34 = getelementptr inbounds nuw i8, ptr %27, i64 12
  store i32 0, ptr %34, align 4, !tbaa !54
  %35 = load ptr, ptr %27, align 8, !tbaa !13
  %36 = getelementptr inbounds nuw i8, ptr %35, i64 16
  %37 = load ptr, ptr %36, align 8
  call void %37(ptr noundef nonnull align 8 dereferenceable(16) %27) #19
  %38 = load ptr, ptr %27, align 8, !tbaa !13
  %39 = getelementptr inbounds nuw i8, ptr %38, i64 24
  %40 = load ptr, ptr %39, align 8
  call void %40(ptr noundef nonnull align 8 dereferenceable(16) %27) #19
  br label %_ZNSt12__shared_ptrIN19OpenColorIO_v2_5dev19FixedFunctionOpDataELN9__gnu_cxx12_Lock_policyE2EED2Ev.exit

41:                                               ; preds = %28
  %42 = load i8, ptr @__libc_single_threaded, align 1, !tbaa !12
  %.not.i.i.i = icmp eq i8 %42, 0
  br i1 %.not.i.i.i, label %45, label %43

43:                                               ; preds = %41
  %44 = add nsw i32 %32, -1
  store i32 %44, ptr %29, align 4, !tbaa !57
  br label %_ZN9__gnu_cxx27__exchange_and_add_dispatchEPii.exit.i.i.i

45:                                               ; preds = %41
  %46 = atomicrmw volatile add ptr %29, i32 -1 acq_rel, align 4
  br label %_ZN9__gnu_cxx27__exchange_and_add_dispatchEPii.exit.i.i.i

_ZN9__gnu_cxx27__exchange_and_add_dispatchEPii.exit.i.i.i: ; preds = %45, %43
  %.0.i.i.i.i = phi i32 [ %32, %43 ], [ %46, %45 ]
  %47 = icmp eq i32 %.0.i.i.i.i, 1
  br i1 %47, label %48, label %_ZNSt12__shared_ptrIN19OpenColorIO_v2_5dev19FixedFunctionOpDataELN9__gnu_cxx12_Lock_policyE2EED2Ev.exit, !prof !41

48:                                               ; preds = %_ZN9__gnu_cxx27__exchange_and_add_dispatchEPii.exit.i.i.i
  call void @_ZNSt16_Sp_counted_baseILN9__gnu_cxx12_Lock_policyE2EE24_M_release_last_use_coldEv(ptr noundef nonnull align 8 dereferenceable(16) %27) #19
  br label %_ZNSt12__shared_ptrIN19OpenColorIO_v2_5dev19FixedFunctionOpDataELN9__gnu_cxx12_Lock_policyE2EED2Ev.exit

_ZNSt12__shared_ptrIN19OpenColorIO_v2_5dev19FixedFunctionOpDataELN9__gnu_cxx12_Lock_policyE2EED2Ev.exit: ; preds = %_ZN19OpenColorIO_v2_5deveqERKNS_19FixedFunctionOpDataES2_.exit, %33, %_ZN9__gnu_cxx27__exchange_and_add_dispatchEPii.exit.i.i.i, %48
  call void @llvm.lifetime.end.p0(i64 16, ptr nonnull %3) #19
  br label %51

49:                                               ; preds = %20
  %50 = landingpad { ptr, i32 }
          cleanup
  call void @_ZNSt12__shared_ptrIN19OpenColorIO_v2_5dev19FixedFunctionOpDataELN9__gnu_cxx12_Lock_policyE2EED2Ev(ptr noundef nonnull align 8 dereferenceable(16) %3) #19
  call void @llvm.lifetime.end.p0(i64 16, ptr nonnull %3) #19
  resume { ptr, i32 } %50

51:                                               ; preds = %_ZNSt12__shared_ptrIN19OpenColorIO_v2_5dev19FixedFunctionOpDataELN9__gnu_cxx12_Lock_policyE2EED2Ev.exit, %11
  %.0 = phi i1 [ %19, %11 ], [ %25, %_ZNSt12__shared_ptrIN19OpenColorIO_v2_5dev19FixedFunctionOpDataELN9__gnu_cxx12_Lock_policyE2EED2Ev.exit ]
  ret i1 %.0
}